target datalayout = "e-m:e-p270:32:32-p271:32:32-p272:64:64-i64:64-i128:128-f80:128-n8:16:32:64-S128"
target triple = "x86_64-pc-linux-gnu"

%struct.jpeg_error_mgr = type { ptr, ptr, ptr, ptr, ptr, i32, %union.anon, i32, i64, ptr, i32, ptr, i32, i32 }
%union.anon = type { [8 x i32], [48 x i8] }
%struct.jpeg_common_struct = type { ptr, ptr, ptr, ptr, i32, i32 }

; Function Attrs: nounwind uwtable
define internal void @emit_message(ptr noundef %0, i32 noundef %1) #0 {
  %3 = alloca ptr, align 8
  %4 = alloca i32, align 4
  %5 = alloca ptr, align 8
  store ptr %0, ptr %3, align 8
  store i32 %1, ptr %4, align 4
  %6 = load ptr, ptr %3, align 8
  %7 = getelementptr inbounds %struct.jpeg_common_struct, ptr %6, i32 0, i32 0
  %8 = load ptr, ptr %7, align 8
  store ptr %8, ptr %5, align 8
  %9 = load i32, ptr %4, align 4
  %10 = icmp slt i32 %9, 0
  br i1 %10, label %11, label %31

11:                                               ; preds = %2
  %12 = load ptr, ptr %5, align 8
  %13 = getelementptr inbounds %struct.jpeg_error_mgr, ptr %12, i32 0, i32 8
  %14 = load i64, ptr %13, align 8
  %15 = icmp eq i64 %14, 0
  br i1 %15, label %21, label %16

16:                                               ; preds = %11
  %17 = load ptr, ptr %5, align 8
  %18 = getelementptr inbounds %struct.jpeg_error_mgr, ptr %17, i32 0, i32 7
  %19 = load i32, ptr %18, align 4
  %20 = icmp sge i32 %19, 3
  br i1 %20, label %21, label %26

21:                                               ; preds = %16, %11
  %22 = load ptr, ptr %5, align 8
  %23 = getelementptr inbounds %struct.jpeg_error_mgr, ptr %22, i32 0, i32 2
  %24 = load ptr, ptr %23, align 8
  %25 = load ptr, ptr %3, align 8
  call void %24(ptr noundef %25)
  br label %26

26:                                               ; preds = %21, %16
  %27 = load ptr, ptr %5, align 8
  %28 = getelementptr inbounds %struct.jpeg_error_mgr, ptr %27, i32 0, i32 8
  %29 = load i64, ptr %28, align 8
  %30 = add nsw i64 %29, 1
  store i64 %30, ptr %28, align 8
  br label %43

31:                                               ; preds = %2
  %32 = load ptr, ptr %5, align 8
  %33 = getelementptr inbounds %struct.jpeg_error_mgr, ptr %32, i32 0, i32 7
  %34 = load i32, ptr %33, align 4
  %35 = load i32, ptr %4, align 4
  %36 = icmp sge i32 %34, %35
  br i1 %36, label %37, label %42

37:                                               ; preds = %31
  %38 = load ptr, ptr %5, align 8
  %39 = getelementptr inbounds %struct.jpeg_error_mgr, ptr %38, i32 0, i32 2
  %40 = load ptr, ptr %39, align 8
  %41 = load ptr, ptr %3, align 8
  call void %40(ptr noundef %41)
  br label %42

42:                                               ; preds = %37, %31
  br label %43

43:                                               ; preds = %42, %26
  ret void
}