; Function Attrs: nounwind uwtable
define internal void @emit_message(ptr noundef %0, i32 noundef %1) #3 {
  %3 = load ptr, ptr %0, align 8
  %4 = icmp slt i32 %1, 0
  br i1 %4, label %5, label %19

5:                                                ; preds = %2
  %6 = getelementptr inbounds i8, ptr %3, i64 128
  %7 = load i64, ptr %6, align 8
  %8 = icmp eq i64 %7, 0
  br i1 %8, label %13, label %9

9:                                                ; preds = %5
  %10 = getelementptr inbounds i8, ptr %3, i64 124
  %11 = load i32, ptr %10, align 4
  %12 = icmp sgt i32 %11, 2
  br i1 %12, label %13, label %16

13:                                               ; preds = %9, %5
  %14 = getelementptr inbounds i8, ptr %3, i64 16
  %15 = load ptr, ptr %14, align 8
  tail call void %15(ptr noundef nonnull %0) #9
  %.pre = load i64, ptr %6, align 8
  br label %16

16:                                               ; preds = %13, %9
  %17 = phi i64 [ %.pre, %13 ], [ %7, %9 ]
  %18 = add nsw i64 %17, 1
  store i64 %18, ptr %6, align 8
  br label %25

19:                                               ; preds = %2
  %20 = getelementptr inbounds i8, ptr %3, i64 124
  %21 = load i32, ptr %20, align 4
  %.not = icmp slt i32 %21, %1
  br i1 %.not, label %25, label %22

22:                                               ; preds = %19
  %23 = getelementptr inbounds i8, ptr %3, i64 16
  %24 = load ptr, ptr %23, align 8
  tail call void %24(ptr noundef nonnull %0) #9
  br label %25

25:                                               ; preds = %19, %22, %16
  ret void
}